target datalayout = "e-m:e-p270:32:32-p271:32:32-p272:64:64-i64:64-i128:128-f80:128-n8:16:32:64-S128"
target triple = "x86_64-pc-linux-gnu"

%"class.std::__cxx11::basic_string" = type { %"struct.std::__cxx11::basic_string<char>::_Alloc_hider", i64, %union.anon }
%"struct.std::__cxx11::basic_string<char>::_Alloc_hider" = type { ptr }
%union.anon = type { i64, [8 x i8] }
%"class.std::allocator" = type { i8 }
%"class.cv::Mat" = type { i32, i32, i32, i32, ptr, ptr, ptr, ptr, ptr, ptr, %"struct.cv::MatSize", %"struct.cv::MatStep" }
%"struct.cv::MatSize" = type { ptr }
%"struct.cv::MatStep" = type { ptr, [2 x i64] }

@.str.1 = private unnamed_addr constant [135 x i8] c"generated/home/dtcxzyw/WorkSpace/Projects/compilers/llvm-opt-benchmark/bench/opencv/opencv/modules/calib3d/src/calibration_handeye.cpp\00", align 1
@.str.20 = private unnamed_addr constant [51 x i8] c"q.type() == CV_64FC1 && q.rows == 4 && q.cols == 1\00", align 1
@__func__._ZN2cvL8quat2rotERKNS_3MatE = private unnamed_addr constant [9 x i8] c"quat2rot\00", align 1

; Function Attrs: mustprogress nounwind uwtable
define linkonce_odr hidden noundef nonnull align 8 dereferenceable(8) ptr @_ZN2cv3Mat2atIdEERT_ii(ptr noundef nonnull align 8 dereferenceable(96) %0, i32 noundef %1, i32 noundef %2) #6 comdat align 2 {
  %4 = alloca ptr, align 8
  %5 = alloca i32, align 4
  %6 = alloca i32, align 4
  store ptr %0, ptr %4, align 8
  store i32 %1, ptr %5, align 4
  store i32 %2, ptr %6, align 4
  %7 = load ptr, ptr %4, align 8
  %8 = getelementptr inbounds %"class.cv::Mat", ptr %7, i32 0, i32 4
  %9 = load ptr, ptr %8, align 8
  %10 = getelementptr inbounds %"class.cv::Mat", ptr %7, i32 0, i32 11
  %11 = getelementptr inbounds %"struct.cv::MatStep", ptr %10, i32 0, i32 0
  %12 = load ptr, ptr %11, align 8
  %13 = getelementptr inbounds i64, ptr %12, i64 0
  %14 = load i64, ptr %13, align 8
  %15 = load i32, ptr %5, align 4
  %16 = sext i32 %15 to i64
  %17 = mul i64 %14, %16
  %18 = getelementptr inbounds i8, ptr %9, i64 %17
  %19 = load i32, ptr %6, align 4
  %20 = sext i32 %19 to i64
  %21 = getelementptr inbounds double, ptr %18, i64 %20
  ret ptr %21
}

; Function Attrs: mustprogress nounwind uwtable
define linkonce_odr hidden noundef nonnull align 8 dereferenceable(8) ptr @_ZNK2cv3Mat2atIdEERKT_ii(ptr noundef nonnull align 8 dereferenceable(96) %0, i32 noundef %1, i32 noundef %2) #6 comdat align 2 {
  %4 = alloca ptr, align 8
  %5 = alloca i32, align 4
  %6 = alloca i32, align 4
  store ptr %0, ptr %4, align 8
  store i32 %1, ptr %5, align 4
  store i32 %2, ptr %6, align 4
  %7 = load ptr, ptr %4, align 8
  %8 = getelementptr inbounds %"class.cv::Mat", ptr %7, i32 0, i32 4
  %9 = load ptr, ptr %8, align 8
  %10 = getelementptr inbounds %"class.cv::Mat", ptr %7, i32 0, i32 11
  %11 = getelementptr inbounds %"struct.cv::MatStep", ptr %10, i32 0, i32 0
  %12 = load ptr, ptr %11, align 8
  %13 = getelementptr inbounds i64, ptr %12, i64 0
  %14 = load i64, ptr %13, align 8
  %15 = load i32, ptr %5, align 4
  %16 = sext i32 %15 to i64
  %17 = mul i64 %14, %16
  %18 = getelementptr inbounds i8, ptr %9, i64 %17
  %19 = load i32, ptr %6, align 4
  %20 = sext i32 %19 to i64
  %21 = getelementptr inbounds double, ptr %18, i64 %20
  ret ptr %21
}

; Function Attrs: mustprogress nounwind uwtable
define linkonce_odr hidden noundef i32 @_ZNK2cv3Mat4typeEv(ptr noundef nonnull align 8 dereferenceable(96) %0) #6 comdat align 2 {
  %2 = alloca ptr, align 8
  store ptr %0, ptr %2, align 8
  %3 = load ptr, ptr %2, align 8
  %4 = getelementptr inbounds %"class.cv::Mat", ptr %3, i32 0, i32 0
  %5 = load i32, ptr %4, align 8
  %6 = and i32 %5, 4095
  ret i32 %6
}

; Function Attrs: mustprogress uwtable
define internal void @_ZN2cvL8quat2rotERKNS_3MatE(ptr dead_on_unwind noalias writable sret(%"class.cv::Mat") align 8 %0, ptr noundef nonnull align 8 dereferenceable(96) %1) #4 personality ptr @__gxx_personality_v0 {
  %3 = alloca ptr, align 8
  %4 = alloca ptr, align 8
  %5 = alloca %"class.std::__cxx11::basic_string", align 8
  %6 = alloca %"class.std::allocator", align 1
  %7 = alloca ptr, align 8
  %8 = alloca i32, align 4
  %9 = alloca double, align 8
  %10 = alloca double, align 8
  %11 = alloca double, align 8
  %12 = alloca double, align 8
  %13 = alloca i1, align 1
  store ptr %0, ptr %3, align 8
  store ptr %1, ptr %4, align 8
  br label %14

14:                                               ; preds = %2
  %15 = load ptr, ptr %4, align 8
  %16 = call noundef i32 @_ZNK2cv3Mat4typeEv(ptr noundef nonnull align 8 dereferenceable(96) %15)
  %17 = icmp eq i32 %16, 6
  br i1 %17, label %18, label %29

18:                                               ; preds = %14
  %19 = load ptr, ptr %4, align 8
  %20 = getelementptr inbounds %"class.cv::Mat", ptr %19, i32 0, i32 2
  %21 = load i32, ptr %20, align 8
  %22 = icmp eq i32 %21, 4
  br i1 %22, label %23, label %29

23:                                               ; preds = %18
  %24 = load ptr, ptr %4, align 8
  %25 = getelementptr inbounds %"class.cv::Mat", ptr %24, i32 0, i32 3
  %26 = load i32, ptr %25, align 4
  %27 = icmp eq i32 %26, 1
  br i1 %27, label %28, label %29

28:                                               ; preds = %23
  br label %41

29:                                               ; preds = %23, %18, %14
  call void @_ZNSaIcEC1Ev(ptr noundef nonnull align 1 dereferenceable(1) %6) #3
  invoke void @_ZNSt7__cxx1112basic_stringIcSt11char_traitsIcESaIcEEC1EPKcRKS3_(ptr noundef nonnull align 8 dereferenceable(32) %5, ptr noundef @.str.20, ptr noundef nonnull align 1 dereferenceable(1) %6)
          to label %30 unwind label %32

30:                                               ; preds = %29
  invoke void @_ZN2cv5errorEiRKNSt7__cxx1112basic_stringIcSt11char_traitsIcESaIcEEEPKcS9_i(i32 noundef -215, ptr noundef nonnull align 8 dereferenceable(32) %5, ptr noundef @__func__._ZN2cvL8quat2rotERKNS_3MatE, ptr noundef @.str.1, i32 noundef 148) #14
          to label %31 unwind label %36

31:                                               ; preds = %30
  unreachable

32:                                               ; preds = %29
  %33 = landingpad { ptr, i32 }
          cleanup
  %34 = extractvalue { ptr, i32 } %33, 0
  store ptr %34, ptr %7, align 8
  %35 = extractvalue { ptr, i32 } %33, 1
  store i32 %35, ptr %8, align 4
  br label %40

36:                                               ; preds = %30
  %37 = landingpad { ptr, i32 }
          cleanup
  %38 = extractvalue { ptr, i32 } %37, 0
  store ptr %38, ptr %7, align 8
  %39 = extractvalue { ptr, i32 } %37, 1
  store i32 %39, ptr %8, align 4
  call void @_ZNSt7__cxx1112basic_stringIcSt11char_traitsIcESaIcEED1Ev(ptr noundef nonnull align 8 dereferenceable(32) %5) #3
  br label %40

40:                                               ; preds = %36, %32
  call void @_ZNSaIcED1Ev(ptr noundef nonnull align 1 dereferenceable(1) %6) #3
  br label %148

41:                                               ; preds = %28
  br label %42

42:                                               ; preds = %41
  %43 = load ptr, ptr %4, align 8
  %44 = call noundef nonnull align 8 dereferenceable(8) ptr @_ZNK2cv3Mat2atIdEERKT_ii(ptr noundef nonnull align 8 dereferenceable(96) %43, i32 noundef 0, i32 noundef 0)
  %45 = load double, ptr %44, align 8
  store double %45, ptr %9, align 8
  %46 = load ptr, ptr %4, align 8
  %47 = call noundef nonnull align 8 dereferenceable(8) ptr @_ZNK2cv3Mat2atIdEERKT_ii(ptr noundef nonnull align 8 dereferenceable(96) %46, i32 noundef 1, i32 noundef 0)
  %48 = load double, ptr %47, align 8
  store double %48, ptr %10, align 8
  %49 = load ptr, ptr %4, align 8
  %50 = call noundef nonnull align 8 dereferenceable(8) ptr @_ZNK2cv3Mat2atIdEERKT_ii(ptr noundef nonnull align 8 dereferenceable(96) %49, i32 noundef 2, i32 noundef 0)
  %51 = load double, ptr %50, align 8
  store double %51, ptr %11, align 8
  %52 = load ptr, ptr %4, align 8
  %53 = call noundef nonnull align 8 dereferenceable(8) ptr @_ZNK2cv3Mat2atIdEERKT_ii(ptr noundef nonnull align 8 dereferenceable(96) %52, i32 noundef 3, i32 noundef 0)
  %54 = load double, ptr %53, align 8
  store double %54, ptr %12, align 8
  store i1 false, ptr %13, align 1
  call void @_ZN2cv3MatC1Eiii(ptr noundef nonnull align 8 dereferenceable(96) %0, i32 noundef 3, i32 noundef 3, i32 noundef 6)
  %55 = load double, ptr %11, align 8
  %56 = fmul double 2.000000e+00, %55
  %57 = load double, ptr %11, align 8
  %58 = fneg double %56
  %59 = call double @llvm.fmuladd.f64(double %58, double %57, double 1.000000e+00)
  %60 = load double, ptr %12, align 8
  %61 = fmul double 2.000000e+00, %60
  %62 = load double, ptr %12, align 8
  %63 = fneg double %61
  %64 = call double @llvm.fmuladd.f64(double %63, double %62, double %59)
  %65 = call noundef nonnull align 8 dereferenceable(8) ptr @_ZN2cv3Mat2atIdEERT_ii(ptr noundef nonnull align 8 dereferenceable(96) %0, i32 noundef 0, i32 noundef 0)
  store double %64, ptr %65, align 8
  %66 = load double, ptr %10, align 8
  %67 = fmul double 2.000000e+00, %66
  %68 = load double, ptr %11, align 8
  %69 = load double, ptr %12, align 8
  %70 = fmul double 2.000000e+00, %69
  %71 = load double, ptr %9, align 8
  %72 = fmul double %70, %71
  %73 = fneg double %72
  %74 = call double @llvm.fmuladd.f64(double %67, double %68, double %73)
  %75 = call noundef nonnull align 8 dereferenceable(8) ptr @_ZN2cv3Mat2atIdEERT_ii(ptr noundef nonnull align 8 dereferenceable(96) %0, i32 noundef 0, i32 noundef 1)
  store double %74, ptr %75, align 8
  %76 = load double, ptr %10, align 8
  %77 = fmul double 2.000000e+00, %76
  %78 = load double, ptr %12, align 8
  %79 = load double, ptr %11, align 8
  %80 = fmul double 2.000000e+00, %79
  %81 = load double, ptr %9, align 8
  %82 = fmul double %80, %81
  %83 = call double @llvm.fmuladd.f64(double %77, double %78, double %82)
  %84 = call noundef nonnull align 8 dereferenceable(8) ptr @_ZN2cv3Mat2atIdEERT_ii(ptr noundef nonnull align 8 dereferenceable(96) %0, i32 noundef 0, i32 noundef 2)
  store double %83, ptr %84, align 8
  %85 = load double, ptr %10, align 8
  %86 = fmul double 2.000000e+00, %85
  %87 = load double, ptr %11, align 8
  %88 = load double, ptr %12, align 8
  %89 = fmul double 2.000000e+00, %88
  %90 = load double, ptr %9, align 8
  %91 = fmul double %89, %90
  %92 = call double @llvm.fmuladd.f64(double %86, double %87, double %91)
  %93 = call noundef nonnull align 8 dereferenceable(8) ptr @_ZN2cv3Mat2atIdEERT_ii(ptr noundef nonnull align 8 dereferenceable(96) %0, i32 noundef 1, i32 noundef 0)
  store double %92, ptr %93, align 8
  %94 = load double, ptr %10, align 8
  %95 = fmul double 2.000000e+00, %94
  %96 = load double, ptr %10, align 8
  %97 = fneg double %95
  %98 = call double @llvm.fmuladd.f64(double %97, double %96, double 1.000000e+00)
  %99 = load double, ptr %12, align 8
  %100 = fmul double 2.000000e+00, %99
  %101 = load double, ptr %12, align 8
  %102 = fneg double %100
  %103 = call double @llvm.fmuladd.f64(double %102, double %101, double %98)
  %104 = call noundef nonnull align 8 dereferenceable(8) ptr @_ZN2cv3Mat2atIdEERT_ii(ptr noundef nonnull align 8 dereferenceable(96) %0, i32 noundef 1, i32 noundef 1)
  store double %103, ptr %104, align 8
  %105 = load double, ptr %11, align 8
  %106 = fmul double 2.000000e+00, %105
  %107 = load double, ptr %12, align 8
  %108 = load double, ptr %10, align 8
  %109 = fmul double 2.000000e+00, %108
  %110 = load double, ptr %9, align 8
  %111 = fmul double %109, %110
  %112 = fneg double %111
  %113 = call double @llvm.fmuladd.f64(double %106, double %107, double %112)
  %114 = call noundef nonnull align 8 dereferenceable(8) ptr @_ZN2cv3Mat2atIdEERT_ii(ptr noundef nonnull align 8 dereferenceable(96) %0, i32 noundef 1, i32 noundef 2)
  store double %113, ptr %114, align 8
  %115 = load double, ptr %10, align 8
  %116 = fmul double 2.000000e+00, %115
  %117 = load double, ptr %12, align 8
  %118 = load double, ptr %11, align 8
  %119 = fmul double 2.000000e+00, %118
  %120 = load double, ptr %9, align 8
  %121 = fmul double %119, %120
  %122 = fneg double %121
  %123 = call double @llvm.fmuladd.f64(double %116, double %117, double %122)
  %124 = call noundef nonnull align 8 dereferenceable(8) ptr @_ZN2cv3Mat2atIdEERT_ii(ptr noundef nonnull align 8 dereferenceable(96) %0, i32 noundef 2, i32 noundef 0)
  store double %123, ptr %124, align 8
  %125 = load double, ptr %11, align 8
  %126 = fmul double 2.000000e+00, %125
  %127 = load double, ptr %12, align 8
  %128 = load double, ptr %10, align 8
  %129 = fmul double 2.000000e+00, %128
  %130 = load double, ptr %9, align 8
  %131 = fmul double %129, %130
  %132 = call double @llvm.fmuladd.f64(double %126, double %127, double %131)
  %133 = call noundef nonnull align 8 dereferenceable(8) ptr @_ZN2cv3Mat2atIdEERT_ii(ptr noundef nonnull align 8 dereferenceable(96) %0, i32 noundef 2, i32 noundef 1)
  store double %132, ptr %133, align 8
  %134 = load double, ptr %10, align 8
  %135 = fmul double 2.000000e+00, %134
  %136 = load double, ptr %10, align 8
  %137 = fneg double %135
  %138 = call double @llvm.fmuladd.f64(double %137, double %136, double 1.000000e+00)
  %139 = load double, ptr %11, align 8
  %140 = fmul double 2.000000e+00, %139
  %141 = load double, ptr %11, align 8
  %142 = fneg double %140
  %143 = call double @llvm.fmuladd.f64(double %142, double %141, double %138)
  %144 = call noundef nonnull align 8 dereferenceable(8) ptr @_ZN2cv3Mat2atIdEERT_ii(ptr noundef nonnull align 8 dereferenceable(96) %0, i32 noundef 2, i32 noundef 2)
  store double %143, ptr %144, align 8
  store i1 true, ptr %13, align 1
  %145 = load i1, ptr %13, align 1
  br i1 %145, label %147, label %146

146:                                              ; preds = %42
  call void @_ZN2cv3MatD1Ev(ptr noundef nonnull align 8 dereferenceable(96) %0) #3
  br label %147

147:                                              ; preds = %146, %42
  ret void

148:                                              ; preds = %40
  %149 = load ptr, ptr %7, align 8
  %150 = load i32, ptr %8, align 4
  %151 = insertvalue { ptr, i32 } poison, ptr %149, 0
  %152 = insertvalue { ptr, i32 } %151, i32 %150, 1
  resume { ptr, i32 } %152
}