; Function Attrs: mustprogress uwtable
define internal fastcc void @_ZN2cvL8quat2rotERKNS_3MatE(ptr dead_on_unwind noalias writable align 8 %0, ptr nocapture noundef nonnull readonly align 8 dereferenceable(96) %1) unnamed_addr #3 personality ptr @__gxx_personality_v0 {
  %3 = alloca %"class.std::__cxx11::basic_string", align 8
  %4 = alloca %"class.std::allocator", align 1
  %5 = load i32, ptr %1, align 8
  %6 = and i32 %5, 4095
  %7 = icmp eq i32 %6, 6
  %8 = getelementptr inbounds i8, ptr %1, i64 8
  %9 = load i32, ptr %8, align 8
  %10 = icmp eq i32 %9, 4
  %or.cond = select i1 %7, i1 %10, i1 false
  %11 = getelementptr inbounds i8, ptr %1, i64 12
  %12 = load i32, ptr %11, align 4
  %13 = icmp eq i32 %12, 1
  %or.cond51 = select i1 %or.cond, i1 %13, i1 false
  br i1 %or.cond51, label %22, label %14

14:                                               ; preds = %2
  call void @_ZNSaIcEC1Ev(ptr noundef nonnull align 1 dereferenceable(1) %4) #18
  invoke void @_ZNSt7__cxx1112basic_stringIcSt11char_traitsIcESaIcEEC1EPKcRKS3_(ptr noundef nonnull align 8 dereferenceable(32) %3, ptr noundef nonnull @.str.20, ptr noundef nonnull align 1 dereferenceable(1) %4)
          to label %15 unwind label %17

15:                                               ; preds = %14
  invoke void @_ZN2cv5errorEiRKNSt7__cxx1112basic_stringIcSt11char_traitsIcESaIcEEEPKcS9_i(i32 noundef -215, ptr noundef nonnull align 8 dereferenceable(32) %3, ptr noundef nonnull @__func__._ZN2cvL8quat2rotERKNS_3MatE, ptr noundef nonnull @.str.1, i32 noundef 148) #19
          to label %16 unwind label %19

16:                                               ; preds = %15
  unreachable

17:                                               ; preds = %14
  %18 = landingpad { ptr, i32 }
          cleanup
  br label %21

19:                                               ; preds = %15
  %20 = landingpad { ptr, i32 }
          cleanup
  call void @_ZNSt7__cxx1112basic_stringIcSt11char_traitsIcESaIcEED1Ev(ptr noundef nonnull align 8 dereferenceable(32) %3) #18
  br label %21

21:                                               ; preds = %19, %17
  %.pn = phi { ptr, i32 } [ %20, %19 ], [ %18, %17 ]
  call void @_ZNSaIcED1Ev(ptr noundef nonnull align 1 dereferenceable(1) %4) #18
  resume { ptr, i32 } %.pn

22:                                               ; preds = %2
  %23 = getelementptr inbounds i8, ptr %1, i64 16
  %24 = load ptr, ptr %23, align 8
  %25 = getelementptr inbounds i8, ptr %1, i64 72
  %26 = load ptr, ptr %25, align 8
  %27 = load double, ptr %24, align 8
  %28 = load i64, ptr %26, align 8
  %29 = getelementptr inbounds i8, ptr %24, i64 %28
  %30 = load double, ptr %29, align 8
  %31 = shl i64 %28, 1
  %32 = getelementptr inbounds i8, ptr %24, i64 %31
  %33 = load double, ptr %32, align 8
  %34 = mul i64 %28, 3
  %35 = getelementptr inbounds i8, ptr %24, i64 %34
  %36 = load double, ptr %35, align 8
  tail call void @_ZN2cv3MatC1Eiii(ptr noundef nonnull align 8 dereferenceable(96) %0, i32 noundef 3, i32 noundef 3, i32 noundef 6)
  %37 = fmul double %33, 2.000000e+00
  %38 = fneg double %37
  %39 = tail call double @llvm.fmuladd.f64(double %38, double %33, double 1.000000e+00)
  %40 = fmul double %36, 2.000000e+00
  %41 = fneg double %40
  %42 = tail call double @llvm.fmuladd.f64(double %41, double %36, double %39)
  %43 = getelementptr inbounds i8, ptr %0, i64 16
  %44 = load ptr, ptr %43, align 8
  %45 = getelementptr inbounds i8, ptr %0, i64 72
  store double %42, ptr %44, align 8
  %46 = fmul double %30, 2.000000e+00
  %47 = fmul double %27, %40
  %48 = fneg double %47
  %49 = tail call double @llvm.fmuladd.f64(double %46, double %33, double %48)
  %50 = load ptr, ptr %43, align 8
  %51 = getelementptr inbounds i8, ptr %50, i64 8
  store double %49, ptr %51, align 8
  %52 = fmul double %27, %37
  %53 = tail call double @llvm.fmuladd.f64(double %46, double %36, double %52)
  %54 = load ptr, ptr %43, align 8
  %55 = getelementptr inbounds i8, ptr %54, i64 16
  store double %53, ptr %55, align 8
  %56 = tail call double @llvm.fmuladd.f64(double %46, double %33, double %47)
  %57 = load ptr, ptr %43, align 8
  %58 = load ptr, ptr %45, align 8
  %59 = load i64, ptr %58, align 8
  %60 = getelementptr inbounds i8, ptr %57, i64 %59
  store double %56, ptr %60, align 8
  %61 = fneg double %46
  %62 = tail call double @llvm.fmuladd.f64(double %61, double %30, double 1.000000e+00)
  %63 = tail call double @llvm.fmuladd.f64(double %41, double %36, double %62)
  %64 = load ptr, ptr %43, align 8
  %65 = load ptr, ptr %45, align 8
  %66 = load i64, ptr %65, align 8
  %67 = getelementptr inbounds i8, ptr %64, i64 %66
  %68 = getelementptr inbounds i8, ptr %67, i64 8
  store double %63, ptr %68, align 8
  %69 = fmul double %27, %46
  %70 = fneg double %69
  %71 = tail call double @llvm.fmuladd.f64(double %37, double %36, double %70)
  %72 = load ptr, ptr %43, align 8
  %73 = load ptr, ptr %45, align 8
  %74 = load i64, ptr %73, align 8
  %75 = getelementptr inbounds i8, ptr %72, i64 %74
  %76 = getelementptr inbounds i8, ptr %75, i64 16
  store double %71, ptr %76, align 8
  %77 = fneg double %52
  %78 = tail call double @llvm.fmuladd.f64(double %46, double %36, double %77)
  %79 = load ptr, ptr %43, align 8
  %80 = load ptr, ptr %45, align 8
  %81 = load i64, ptr %80, align 8
  %82 = shl i64 %81, 1
  %83 = getelementptr inbounds i8, ptr %79, i64 %82
  store double %78, ptr %83, align 8
  %84 = tail call double @llvm.fmuladd.f64(double %37, double %36, double %69)
  %85 = load ptr, ptr %43, align 8
  %86 = load ptr, ptr %45, align 8
  %87 = load i64, ptr %86, align 8
  %88 = shl i64 %87, 1
  %89 = getelementptr inbounds i8, ptr %85, i64 %88
  %90 = getelementptr inbounds i8, ptr %89, i64 8
  store double %84, ptr %90, align 8
  %91 = tail call double @llvm.fmuladd.f64(double %38, double %33, double %62)
  %92 = load ptr, ptr %43, align 8
  %93 = load ptr, ptr %45, align 8
  %94 = load i64, ptr %93, align 8
  %95 = shl i64 %94, 1
  %96 = getelementptr inbounds i8, ptr %92, i64 %95
  %97 = getelementptr inbounds i8, ptr %96, i64 16
  store double %91, ptr %97, align 8
  ret void
}